; Function Attrs: nounwind uwtable
define dso_local void @trackingInvalidateKeysOnFlush(i32 noundef %0) local_unnamed_addr #0 {
  %2 = alloca %struct.listIter, align 8
  %3 = load i32, ptr getelementptr inbounds nuw (i8, ptr @server, i64 7648), align 8, !tbaa !44
  %.not = icmp eq i32 %3, 0
  br i1 %.not, label %51, label %4

4:                                                ; preds = %1
  call void @llvm.lifetime.start.p0(i64 16, ptr nonnull %2) #9
  %5 = load ptr, ptr getelementptr inbounds nuw (i8, ptr @server, i64 1432), align 8, !tbaa !109
  call void @listRewind(ptr noundef %5, ptr noundef nonnull %2) #9
  %6 = call ptr @listNext(ptr noundef nonnull %2) #9
  %.not812 = icmp eq ptr %6, null
  br i1 %.not812, label %._crit_edge, label %.lr.ph

.lr.ph:                                           ; preds = %4, %49
  %7 = phi ptr [ %50, %49 ], [ %6, %4 ]
  %8 = getelementptr inbounds nuw i8, ptr %7, i64 16
  %9 = load ptr, ptr %8, align 8, !tbaa !106
  %10 = getelementptr inbounds nuw i8, ptr %9, i64 8
  %11 = load i64, ptr %10, align 8, !tbaa !10
  %12 = and i64 %11, 2147483648
  %.not11 = icmp eq i64 %12, 0
  br i1 %.not11, label %49, label %13

13:                                               ; preds = %.lr.ph
  %14 = load ptr, ptr getelementptr inbounds nuw (i8, ptr @server, i64 1480), align 8, !tbaa !107
  %15 = icmp eq ptr %9, %14
  br i1 %15, label %16, label %19

16:                                               ; preds = %13
  %17 = load ptr, ptr getelementptr inbounds nuw (i8, ptr @server, i64 7664), align 8, !tbaa !103
  %18 = call ptr @listAddNodeTail(ptr noundef %17, ptr noundef null) #9
  br label %49

19:                                               ; preds = %13
  %20 = getelementptr inbounds nuw i8, ptr %9, i64 28
  %21 = load i32, ptr %20, align 4, !tbaa !91
  %22 = sext i32 %21 to i64
  %23 = getelementptr inbounds [4 x ptr], ptr getelementptr inbounds nuw (i8, ptr @shared, i64 64), i64 0, i64 %22
  %24 = load ptr, ptr %23, align 8, !tbaa !64
  %25 = getelementptr inbounds nuw i8, ptr %24, i64 8
  %26 = load ptr, ptr %25, align 8, !tbaa !65
  %27 = getelementptr inbounds i8, ptr %26, i64 -1
  %28 = load i8, ptr %27, align 1, !tbaa !67
  %29 = zext i8 %28 to i32
  %30 = and i32 %29, 7
  switch i32 %30, label %sdslen.exit [
    i32 0, label %31
    i32 1, label %34
    i32 2, label %38
    i32 3, label %42
    i32 4, label %46
  ]

31:                                               ; preds = %19
  %32 = lshr i32 %29, 3
  %33 = zext nneg i32 %32 to i64
  br label %sdslen.exit

34:                                               ; preds = %19
  %35 = getelementptr inbounds i8, ptr %26, i64 -3
  %36 = load i8, ptr %35, align 1, !tbaa !67
  %37 = zext i8 %36 to i64
  br label %sdslen.exit

38:                                               ; preds = %19
  %39 = getelementptr inbounds i8, ptr %26, i64 -5
  %40 = load i16, ptr %39, align 1, !tbaa !68
  %41 = zext i16 %40 to i64
  br label %sdslen.exit

42:                                               ; preds = %19
  %43 = getelementptr inbounds i8, ptr %26, i64 -9
  %44 = load i32, ptr %43, align 1, !tbaa !70
  %45 = zext i32 %44 to i64
  br label %sdslen.exit

46:                                               ; preds = %19
  %47 = getelementptr inbounds i8, ptr %26, i64 -17
  %48 = load i64, ptr %47, align 1, !tbaa !71
  br label %sdslen.exit

sdslen.exit:                                      ; preds = %19, %31, %34, %38, %42, %46
  %.0.i = phi i64 [ %48, %46 ], [ %45, %42 ], [ %41, %38 ], [ %37, %34 ], [ %33, %31 ], [ 0, %19 ]
  call void @sendTrackingMessage(ptr noundef nonnull %9, ptr noundef nonnull %26, i64 noundef %.0.i, i32 noundef 1)
  br label %49

49:                                               ; preds = %16, %sdslen.exit, %.lr.ph
  %50 = call ptr @listNext(ptr noundef nonnull %2) #9
  %.not8 = icmp eq ptr %50, null
  br i1 %.not8, label %._crit_edge, label %.lr.ph, !llvm.loop !110

._crit_edge:                                      ; preds = %49, %4
  call void @llvm.lifetime.end.p0(i64 16, ptr nonnull %2) #9
  br label %51

51:                                               ; preds = %._crit_edge, %1
  %52 = load ptr, ptr @TrackingTable, align 8, !tbaa !31
  %.not9 = icmp eq ptr %52, null
  br i1 %.not9, label %58, label %53

53:                                               ; preds = %51
  %.not10 = icmp eq i32 %0, 0
  br i1 %.not10, label %55, label %54

54:                                               ; preds = %53
  call void @freeTrackingRadixTreeAsync(ptr noundef nonnull %52) #9
  br label %56

55:                                               ; preds = %53
  call void @raxFreeWithCallback(ptr noundef nonnull %52, ptr noundef nonnull @freeTrackingRadixTreeCallback) #9
  br label %56

56:                                               ; preds = %55, %54
  %57 = call ptr @raxNew() #9
  store ptr %57, ptr @TrackingTable, align 8, !tbaa !31
  store i64 0, ptr @TrackingTableTotalItems, align 8, !tbaa !71
  br label %58

58:                                               ; preds = %56, %51
  ret void
}